; ModuleID = '29/1059.c'
source_filename = "29/1059.c"
target datalayout = "e-m:e-p270:32:32-p271:32:32-p272:64:64-i64:64-f80:128-n8:16:32:64-S128"
target triple = "x86_64-pc-linux-gnu"

@.str = private unnamed_addr constant [3 x i8] c"%d\00", align 1
@.str.1 = private unnamed_addr constant [7 x i8] c"%.3lf\0A\00", align 1

; Function Attrs: noinline nounwind uwtable
define dso_local i32 @main() #0 {
  %1 = alloca i32, align 4
  %2 = alloca i32, align 4
  %3 = alloca i32, align 4
  %4 = alloca i32, align 4
  %5 = alloca [1000 x i32], align 16
  %6 = alloca [1000 x i32], align 16
  %7 = alloca i32*, align 8
  %8 = alloca double*, align 8
  store i32 0, i32* %1, align 4
  %9 = call i32 (i8*, ...) @__isoc99_scanf(i8* getelementptr inbounds ([3 x i8], [3 x i8]* @.str, i64 0, i64 0), i32* %2)
  %10 = load i32, i32* %2, align 4
  %11 = sext i32 %10 to i64
  %12 = mul i64 4, %11
  %13 = call noalias i8* @malloc(i64 %12) #3
  %14 = bitcast i8* %13 to i32*
  store i32* %14, i32** %7, align 8
  %15 = load i32, i32* %2, align 4
  %16 = sext i32 %15 to i64
  %17 = mul i64 8, %16
  %18 = call noalias i8* @malloc(i64 %17) #3
  %19 = bitcast i8* %18 to double*
  store double* %19, double** %8, align 8
  store i32 0, i32* %3, align 4
  br label %20

20:                                               ; preds = %30, %0
  %21 = load i32, i32* %3, align 4
  %22 = load i32, i32* %2, align 4
  %23 = icmp slt i32 %21, %22
  br i1 %23, label %24, label %33

24:                                               ; preds = %20
  %25 = load i32*, i32** %7, align 8
  %26 = load i32, i32* %3, align 4
  %27 = sext i32 %26 to i64
  %28 = getelementptr inbounds i32, i32* %25, i64 %27
  %29 = call i32 (i8*, ...) @__isoc99_scanf(i8* getelementptr inbounds ([3 x i8], [3 x i8]* @.str, i64 0, i64 0), i32* %28)
  br label %30

30:                                               ; preds = %24
  %31 = load i32, i32* %3, align 4
  %32 = add nsw i32 %31, 1
  store i32 %32, i32* %3, align 4
  br label %20

33:                                               ; preds = %20
  %34 = getelementptr inbounds [1000 x i32], [1000 x i32]* %5, i64 0, i64 0
  store i32 2, i32* %34, align 16
  %35 = getelementptr inbounds [1000 x i32], [1000 x i32]* %5, i64 0, i64 1
  store i32 3, i32* %35, align 4
  %36 = getelementptr inbounds [1000 x i32], [1000 x i32]* %6, i64 0, i64 0
  store i32 1, i32* %36, align 16
  %37 = getelementptr inbounds [1000 x i32], [1000 x i32]* %6, i64 0, i64 1
  store i32 2, i32* %37, align 4
  store i32 2, i32* %3, align 4
  br label %38

38:                                               ; preds = %56, %33
  %39 = load i32, i32* %3, align 4
  %40 = icmp slt i32 %39, 1000
  br i1 %40, label %41, label %59

41:                                               ; preds = %38
  %42 = load i32, i32* %3, align 4
  %43 = sub nsw i32 %42, 1
  %44 = sext i32 %43 to i64
  %45 = getelementptr inbounds [1000 x i32], [1000 x i32]* %5, i64 0, i64 %44
  %46 = load i32, i32* %45, align 4
  %47 = load i32, i32* %3, align 4
  %48 = sub nsw i32 %47, 2
  %49 = sext i32 %48 to i64
  %50 = getelementptr inbounds [1000 x i32], [1000 x i32]* %5, i64 0, i64 %49
  %51 = load i32, i32* %50, align 4
  %52 = add nsw i32 %46, %51
  %53 = load i32, i32* %3, align 4
  %54 = sext i32 %53 to i64
  %55 = getelementptr inbounds [1000 x i32], [1000 x i32]* %5, i64 0, i64 %54
  store i32 %52, i32* %55, align 4
  br label %56

56:                                               ; preds = %41
  %57 = load i32, i32* %3, align 4
  %58 = add nsw i32 %57, 1
  store i32 %58, i32* %3, align 4
  br label %38

59:                                               ; preds = %38
  store i32 2, i32* %3, align 4
  br label %60

60:                                               ; preds = %78, %59
  %61 = load i32, i32* %3, align 4
  %62 = icmp slt i32 %61, 1000
  br i1 %62, label %63, label %81

63:                                               ; preds = %60
  %64 = load i32, i32* %3, align 4
  %65 = sub nsw i32 %64, 1
  %66 = sext i32 %65 to i64
  %67 = getelementptr inbounds [1000 x i32], [1000 x i32]* %6, i64 0, i64 %66
  %68 = load i32, i32* %67, align 4
  %69 = load i32, i32* %3, align 4
  %70 = sub nsw i32 %69, 2
  %71 = sext i32 %70 to i64
  %72 = getelementptr inbounds [1000 x i32], [1000 x i32]* %6, i64 0, i64 %71
  %73 = load i32, i32* %72, align 4
  %74 = add nsw i32 %68, %73
  %75 = load i32, i32* %3, align 4
  %76 = sext i32 %75 to i64
  %77 = getelementptr inbounds [1000 x i32], [1000 x i32]* %6, i64 0, i64 %76
  store i32 %74, i32* %77, align 4
  br label %78

78:                                               ; preds = %63
  %79 = load i32, i32* %3, align 4
  %80 = add nsw i32 %79, 1
  store i32 %80, i32* %3, align 4
  br label %60

81:                                               ; preds = %60
  store i32 0, i32* %3, align 4
  br label %82

82:                                               ; preds = %122, %81
  %83 = load i32, i32* %3, align 4
  %84 = load i32, i32* %2, align 4
  %85 = icmp slt i32 %83, %84
  br i1 %85, label %86, label %125

86:                                               ; preds = %82
  %87 = load double*, double** %8, align 8
  %88 = load i32, i32* %3, align 4
  %89 = sext i32 %88 to i64
  %90 = getelementptr inbounds double, double* %87, i64 %89
  store double 0.000000e+00, double* %90, align 8
  store i32 0, i32* %4, align 4
  br label %91

91:                                               ; preds = %118, %86
  %92 = load i32, i32* %4, align 4
  %93 = load i32*, i32** %7, align 8
  %94 = load i32, i32* %3, align 4
  %95 = sext i32 %94 to i64
  %96 = getelementptr inbounds i32, i32* %93, i64 %95
  %97 = load i32, i32* %96, align 4
  %98 = icmp slt i32 %92, %97
  br i1 %98, label %99, label %121

99:                                               ; preds = %91
  %100 = load i32, i32* %4, align 4
  %101 = sext i32 %100 to i64
  %102 = getelementptr inbounds [1000 x i32], [1000 x i32]* %5, i64 0, i64 %101
  %103 = load i32, i32* %102, align 4
  %104 = sitofp i32 %103 to double
  %105 = fmul double %104, 1.000000e+00
  %106 = load i32, i32* %4, align 4
  %107 = sext i32 %106 to i64
  %108 = getelementptr inbounds [1000 x i32], [1000 x i32]* %6, i64 0, i64 %107
  %109 = load i32, i32* %108, align 4
  %110 = sitofp i32 %109 to double
  %111 = fdiv double %105, %110
  %112 = load double*, double** %8, align 8
  %113 = load i32, i32* %3, align 4
  %114 = sext i32 %113 to i64
  %115 = getelementptr inbounds double, double* %112, i64 %114
  %116 = load double, double* %115, align 8
  %117 = fadd double %116, %111
  store double %117, double* %115, align 8
  br label %118

118:                                              ; preds = %99
  %119 = load i32, i32* %4, align 4
  %120 = add nsw i32 %119, 1
  store i32 %120, i32* %4, align 4
  br label %91

121:                                              ; preds = %91
  br label %122

122:                                              ; preds = %121
  %123 = load i32, i32* %3, align 4
  %124 = add nsw i32 %123, 1
  store i32 %124, i32* %3, align 4
  br label %82

125:                                              ; preds = %82
  store i32 0, i32* %3, align 4
  br label %126

126:                                              ; preds = %137, %125
  %127 = load i32, i32* %3, align 4
  %128 = load i32, i32* %2, align 4
  %129 = icmp slt i32 %127, %128
  br i1 %129, label %130, label %140

130:                                              ; preds = %126
  %131 = load double*, double** %8, align 8
  %132 = load i32, i32* %3, align 4
  %133 = sext i32 %132 to i64
  %134 = getelementptr inbounds double, double* %131, i64 %133
  %135 = load double, double* %134, align 8
  %136 = call i32 (i8*, ...) @printf(i8* getelementptr inbounds ([7 x i8], [7 x i8]* @.str.1, i64 0, i64 0), double %135)
  br label %137

137:                                              ; preds = %130
  %138 = load i32, i32* %3, align 4
  %139 = add nsw i32 %138, 1
  store i32 %139, i32* %3, align 4
  br label %126

140:                                              ; preds = %126
  %141 = load i32*, i32** %7, align 8
  %142 = bitcast i32* %141 to i8*
  call void @free(i8* %142) #3
  ret i32 0
}

declare dso_local i32 @__isoc99_scanf(i8*, ...) #1

; Function Attrs: nounwind
declare dso_local noalias i8* @malloc(i64) #2

declare dso_local i32 @printf(i8*, ...) #1

; Function Attrs: nounwind
declare dso_local void @free(i8*) #2


!llvm.module.flags = !{!0}
!llvm.ident = !{!1}

!0 = !{i32 1, !"wchar_size", i32 4}
!1 = !{!"clang version 10.0.0-4ubuntu1 "}
